target datalayout = "e-m:e-p270:32:32-p271:32:32-p272:64:64-i64:64-i128:128-f80:128-n8:16:32:64-S128"
target triple = "x86_64-unknown-linux-gnu"

%"class.boost::detail::shared_count" = type { ptr }
%"class.boost::shared_ptr.16" = type { ptr, %"class.boost::detail::shared_count" }
%"class.boost::shared_ptr.45" = type { ptr, %"class.boost::detail::shared_count" }
%"class.QuantLib::(anonymous namespace)::FdmOUInnerValue" = type { %"class.QuantLib::FdmInnerValueCalculator", %"class.boost::shared_ptr.16", %"class.boost::shared_ptr.45", i64 }
%"class.QuantLib::FdmInnerValueCalculator" = type { ptr }

@.str.10 = private unnamed_addr constant [8 x i8] c"px != 0\00", align 1
@.str.11 = private unnamed_addr constant [102 x i8] c"generated/home/dtcxzyw/WorkSpace/SDK/vcpkg/installed/x64-linux/include/boost/smart_ptr/shared_ptr.hpp\00", align 1
@__PRETTY_FUNCTION__._ZNK5boost10shared_ptrIN8QuantLib9FdmMesherEEptEv = private unnamed_addr constant [135 x i8] c"typename boost::detail::sp_member_access<T>::type boost::shared_ptr<QuantLib::FdmMesher>::operator->() const [T = QuantLib::FdmMesher]\00", align 1
@__PRETTY_FUNCTION__._ZNK5boost10shared_ptrIN8QuantLib6PayoffEEdeEv = private unnamed_addr constant [126 x i8] c"typename boost::detail::sp_dereference<T>::type boost::shared_ptr<QuantLib::Payoff>::operator*() const [T = QuantLib::Payoff]\00", align 1

; Function Attrs: mustprogress uwtable
define linkonce_odr noundef nonnull align 8 dereferenceable(8) ptr @_ZNK5boost10shared_ptrIN8QuantLib6PayoffEEdeEv(ptr noundef nonnull align 8 dereferenceable(16) %this) #2 comdat align 2 {
entry:
  %this.addr = alloca ptr, align 8
  store ptr %this, ptr %this.addr, align 8, !tbaa !3
  %this1 = load ptr, ptr %this.addr, align 8
  %px = getelementptr inbounds nuw %"class.boost::shared_ptr.16", ptr %this1, i32 0, i32 0
  %0 = load ptr, ptr %px, align 8, !tbaa !94
  %cmp = icmp ne ptr %0, null
  %lnot = xor i1 %cmp, true
  %lnot2 = xor i1 %lnot, true
  %conv = zext i1 %lnot2 to i64
  %expval = call i64 @llvm.expect.i64(i64 %conv, i64 1)
  %tobool = icmp ne i64 %expval, 0
  br i1 %tobool, label %cond.true, label %cond.false

cond.true:                                        ; preds = %entry
  br label %cond.end

cond.false:                                       ; preds = %entry
  call void @_ZN5boost16assertion_failedEPKcS1_S1_l(ptr noundef @.str.10, ptr noundef @__PRETTY_FUNCTION__._ZNK5boost10shared_ptrIN8QuantLib6PayoffEEdeEv, ptr noundef @.str.11, i64 noundef 778)
  br label %cond.end

cond.end:                                         ; preds = %cond.false, %cond.true
  %px3 = getelementptr inbounds nuw %"class.boost::shared_ptr.16", ptr %this1, i32 0, i32 0
  %1 = load ptr, ptr %px3, align 8, !tbaa !94
  ret ptr %1
}

; Function Attrs: mustprogress uwtable
define linkonce_odr noundef ptr @_ZNK5boost10shared_ptrIN8QuantLib9FdmMesherEEptEv(ptr noundef nonnull align 8 dereferenceable(16) %this) #2 comdat align 2 {
entry:
  %this.addr = alloca ptr, align 8
  store ptr %this, ptr %this.addr, align 8, !tbaa !3
  %this1 = load ptr, ptr %this.addr, align 8
  %px = getelementptr inbounds nuw %"class.boost::shared_ptr.45", ptr %this1, i32 0, i32 0
  %0 = load ptr, ptr %px, align 8, !tbaa !91
  %cmp = icmp ne ptr %0, null
  %lnot = xor i1 %cmp, true
  %lnot2 = xor i1 %lnot, true
  %conv = zext i1 %lnot2 to i64
  %expval = call i64 @llvm.expect.i64(i64 %conv, i64 1)
  %tobool = icmp ne i64 %expval, 0
  br i1 %tobool, label %cond.true, label %cond.false

cond.true:                                        ; preds = %entry
  br label %cond.end

cond.false:                                       ; preds = %entry
  call void @_ZN5boost16assertion_failedEPKcS1_S1_l(ptr noundef @.str.10, ptr noundef @__PRETTY_FUNCTION__._ZNK5boost10shared_ptrIN8QuantLib9FdmMesherEEptEv, ptr noundef @.str.11, i64 noundef 784)
  br label %cond.end

cond.end:                                         ; preds = %cond.false, %cond.true
  %px3 = getelementptr inbounds nuw %"class.boost::shared_ptr.45", ptr %this1, i32 0, i32 0
  %1 = load ptr, ptr %px3, align 8, !tbaa !91
  ret ptr %1
}

; Function Attrs: mustprogress uwtable
define internal noundef double @_ZN8QuantLib12_GLOBAL__N_115FdmOUInnerValue10innerValueERKNS_19FdmLinearOpIteratorEd(ptr noundef nonnull align 8 dereferenceable(48) %this, ptr noundef nonnull align 8 dereferenceable(56) %iter, double noundef %0) unnamed_addr #2 align 2 {
entry:
  %this.addr = alloca ptr, align 8
  %iter.addr = alloca ptr, align 8
  %.addr = alloca double, align 8
  %s = alloca double, align 8
  store ptr %this, ptr %this.addr, align 8, !tbaa !3
  store ptr %iter, ptr %iter.addr, align 8, !tbaa !3
  store double %0, ptr %.addr, align 8, !tbaa !16
  %this1 = load ptr, ptr %this.addr, align 8
  call void @llvm.lifetime.start.p0(i64 8, ptr %s) #11
  %mesher_ = getelementptr inbounds nuw %"class.QuantLib::(anonymous namespace)::FdmOUInnerValue", ptr %this1, i32 0, i32 2
  %call = call noundef ptr @_ZNK5boost10shared_ptrIN8QuantLib9FdmMesherEEptEv(ptr noundef nonnull align 8 dereferenceable(16) %mesher_)
  %1 = load ptr, ptr %iter.addr, align 8, !tbaa !3
  %direction_ = getelementptr inbounds nuw %"class.QuantLib::(anonymous namespace)::FdmOUInnerValue", ptr %this1, i32 0, i32 3
  %2 = load i64, ptr %direction_, align 8, !tbaa !95
  %vtable = load ptr, ptr %call, align 8, !tbaa !12
  %vfn = getelementptr inbounds ptr, ptr %vtable, i64 4
  %3 = load ptr, ptr %vfn, align 8
  %call2 = call noundef double %3(ptr noundef nonnull align 8 dereferenceable(24) %call, ptr noundef nonnull align 8 dereferenceable(56) %1, i64 noundef %2)
  store double %call2, ptr %s, align 8, !tbaa !16
  %payoff_ = getelementptr inbounds nuw %"class.QuantLib::(anonymous namespace)::FdmOUInnerValue", ptr %this1, i32 0, i32 1
  %call3 = call noundef nonnull align 8 dereferenceable(8) ptr @_ZNK5boost10shared_ptrIN8QuantLib6PayoffEEdeEv(ptr noundef nonnull align 8 dereferenceable(16) %payoff_)
  %4 = load double, ptr %s, align 8, !tbaa !16
  %vtable4 = load ptr, ptr %call3, align 8, !tbaa !12
  %vfn5 = getelementptr inbounds ptr, ptr %vtable4, i64 4
  %5 = load ptr, ptr %vfn5, align 8
  %call6 = call noundef double %5(ptr noundef nonnull align 8 dereferenceable(8) %call3, double noundef %4)
  call void @llvm.lifetime.end.p0(i64 8, ptr %s) #11
  ret double %call6
}