; Function Attrs: mustprogress uwtable
define internal noundef double @_ZN8QuantLib12_GLOBAL__N_115FdmOUInnerValue10innerValueERKNS_19FdmLinearOpIteratorEd(ptr nocapture noundef nonnull readonly align 8 dereferenceable(48) %this, ptr noundef nonnull align 8 dereferenceable(56) %iter, double %0) unnamed_addr #8 align 2 {
entry:
  %mesher_ = getelementptr inbounds nuw i8, ptr %this, i64 24
  %1 = load ptr, ptr %mesher_, align 8, !tbaa !108
  %cmp.not.i = icmp eq ptr %1, null
  br i1 %cmp.not.i, label %cond.false.i, label %_ZNK5boost10shared_ptrIN8QuantLib9FdmMesherEEptEv.exit, !prof !96

cond.false.i:                                     ; preds = %entry
  tail call void @_ZN5boost16assertion_failedEPKcS1_S1_l(ptr noundef nonnull @.str.10, ptr noundef nonnull @__PRETTY_FUNCTION__._ZNK5boost10shared_ptrIN8QuantLib9FdmMesherEEptEv, ptr noundef nonnull @.str.11, i64 noundef 784)
  %.pre.i = load ptr, ptr %mesher_, align 8, !tbaa !108
  br label %_ZNK5boost10shared_ptrIN8QuantLib9FdmMesherEEptEv.exit

_ZNK5boost10shared_ptrIN8QuantLib9FdmMesherEEptEv.exit: ; preds = %entry, %cond.false.i
  %2 = phi ptr [ %1, %entry ], [ %.pre.i, %cond.false.i ]
  %direction_ = getelementptr inbounds nuw i8, ptr %this, i64 40
  %3 = load i64, ptr %direction_, align 8, !tbaa !112
  %vtable = load ptr, ptr %2, align 8, !tbaa !35
  %vfn = getelementptr inbounds i8, ptr %vtable, i64 32
  %4 = load ptr, ptr %vfn, align 8
  %call2 = tail call noundef double %4(ptr noundef nonnull align 8 dereferenceable(24) %2, ptr noundef nonnull align 8 dereferenceable(56) %iter, i64 noundef %3)
  %payoff_ = getelementptr inbounds nuw i8, ptr %this, i64 8
  %5 = load ptr, ptr %payoff_, align 8, !tbaa !93
  %cmp.not.i1 = icmp eq ptr %5, null
  br i1 %cmp.not.i1, label %cond.false.i2, label %_ZNK5boost10shared_ptrIN8QuantLib6PayoffEEdeEv.exit, !prof !96

cond.false.i2:                                    ; preds = %_ZNK5boost10shared_ptrIN8QuantLib9FdmMesherEEptEv.exit
  tail call void @_ZN5boost16assertion_failedEPKcS1_S1_l(ptr noundef nonnull @.str.10, ptr noundef nonnull @__PRETTY_FUNCTION__._ZNK5boost10shared_ptrIN8QuantLib6PayoffEEdeEv, ptr noundef nonnull @.str.11, i64 noundef 778)
  %.pre.i3 = load ptr, ptr %payoff_, align 8, !tbaa !93
  br label %_ZNK5boost10shared_ptrIN8QuantLib6PayoffEEdeEv.exit

_ZNK5boost10shared_ptrIN8QuantLib6PayoffEEdeEv.exit: ; preds = %_ZNK5boost10shared_ptrIN8QuantLib9FdmMesherEEptEv.exit, %cond.false.i2
  %6 = phi ptr [ %5, %_ZNK5boost10shared_ptrIN8QuantLib9FdmMesherEEptEv.exit ], [ %.pre.i3, %cond.false.i2 ]
  %vtable4 = load ptr, ptr %6, align 8, !tbaa !35
  %vfn5 = getelementptr inbounds i8, ptr %vtable4, i64 32
  %7 = load ptr, ptr %vfn5, align 8
  %call6 = tail call noundef double %7(ptr noundef nonnull align 8 dereferenceable(8) %6, double noundef %call2)
  ret double %call6
}